target datalayout = "e-m:e-p270:32:32-p271:32:32-p272:64:64-i64:64-i128:128-f80:128-n8:16:32:64-S128"
target triple = "x86_64-pc-linux-gnu"

%struct.Vec_Ptr_t_ = type { i32, i32, ptr }

; Function Attrs: inlinehint nounwind uwtable
define internal void @Abc_TtXor(ptr noundef %0, ptr noundef %1, ptr noundef %2, i32 noundef %3, i32 noundef %4) #2 {
  %6 = alloca ptr, align 8
  %7 = alloca ptr, align 8
  %8 = alloca ptr, align 8
  %9 = alloca i32, align 4
  %10 = alloca i32, align 4
  %11 = alloca i32, align 4
  store ptr %0, ptr %6, align 8, !tbaa !76
  store ptr %1, ptr %7, align 8, !tbaa !76
  store ptr %2, ptr %8, align 8, !tbaa !76
  store i32 %3, ptr %9, align 4, !tbaa !10
  store i32 %4, ptr %10, align 4, !tbaa !10
  call void @llvm.lifetime.start.p0(i64 4, ptr %11) #14
  %12 = load i32, ptr %10, align 4, !tbaa !10
  %13 = icmp ne i32 %12, 0
  br i1 %13, label %14, label %40

14:                                               ; preds = %5
  store i32 0, ptr %11, align 4, !tbaa !10
  br label %15

15:                                               ; preds = %36, %14
  %16 = load i32, ptr %11, align 4, !tbaa !10
  %17 = load i32, ptr %9, align 4, !tbaa !10
  %18 = icmp slt i32 %16, %17
  br i1 %18, label %19, label %39

19:                                               ; preds = %15
  %20 = load ptr, ptr %7, align 8, !tbaa !76
  %21 = load i32, ptr %11, align 4, !tbaa !10
  %22 = sext i32 %21 to i64
  %23 = getelementptr inbounds i64, ptr %20, i64 %22
  %24 = load i64, ptr %23, align 8, !tbaa !65
  %25 = load ptr, ptr %8, align 8, !tbaa !76
  %26 = load i32, ptr %11, align 4, !tbaa !10
  %27 = sext i32 %26 to i64
  %28 = getelementptr inbounds i64, ptr %25, i64 %27
  %29 = load i64, ptr %28, align 8, !tbaa !65
  %30 = xor i64 %29, -1
  %31 = xor i64 %24, %30
  %32 = load ptr, ptr %6, align 8, !tbaa !76
  %33 = load i32, ptr %11, align 4, !tbaa !10
  %34 = sext i32 %33 to i64
  %35 = getelementptr inbounds i64, ptr %32, i64 %34
  store i64 %31, ptr %35, align 8, !tbaa !65
  br label %36

36:                                               ; preds = %19
  %37 = load i32, ptr %11, align 4, !tbaa !10
  %38 = add nsw i32 %37, 1
  store i32 %38, ptr %11, align 4, !tbaa !10
  br label %15, !llvm.loop !110

39:                                               ; preds = %15
  br label %65

40:                                               ; preds = %5
  store i32 0, ptr %11, align 4, !tbaa !10
  br label %41

41:                                               ; preds = %61, %40
  %42 = load i32, ptr %11, align 4, !tbaa !10
  %43 = load i32, ptr %9, align 4, !tbaa !10
  %44 = icmp slt i32 %42, %43
  br i1 %44, label %45, label %64

45:                                               ; preds = %41
  %46 = load ptr, ptr %7, align 8, !tbaa !76
  %47 = load i32, ptr %11, align 4, !tbaa !10
  %48 = sext i32 %47 to i64
  %49 = getelementptr inbounds i64, ptr %46, i64 %48
  %50 = load i64, ptr %49, align 8, !tbaa !65
  %51 = load ptr, ptr %8, align 8, !tbaa !76
  %52 = load i32, ptr %11, align 4, !tbaa !10
  %53 = sext i32 %52 to i64
  %54 = getelementptr inbounds i64, ptr %51, i64 %53
  %55 = load i64, ptr %54, align 8, !tbaa !65
  %56 = xor i64 %50, %55
  %57 = load ptr, ptr %6, align 8, !tbaa !76
  %58 = load i32, ptr %11, align 4, !tbaa !10
  %59 = sext i32 %58 to i64
  %60 = getelementptr inbounds i64, ptr %57, i64 %59
  store i64 %56, ptr %60, align 8, !tbaa !65
  br label %61

61:                                               ; preds = %45
  %62 = load i32, ptr %11, align 4, !tbaa !10
  %63 = add nsw i32 %62, 1
  store i32 %63, ptr %11, align 4, !tbaa !10
  br label %41, !llvm.loop !111

64:                                               ; preds = %41
  br label %65

65:                                               ; preds = %64, %39
  call void @llvm.lifetime.end.p0(i64 4, ptr %11) #14
  ret void
}

; Function Attrs: inlinehint nounwind uwtable
define internal void @Abc_TtAndCompl(ptr noundef %0, ptr noundef %1, i32 noundef %2, ptr noundef %3, i32 noundef %4, i32 noundef %5) #2 {
  %7 = alloca ptr, align 8
  %8 = alloca ptr, align 8
  %9 = alloca i32, align 4
  %10 = alloca ptr, align 8
  %11 = alloca i32, align 4
  %12 = alloca i32, align 4
  %13 = alloca i32, align 4
  store ptr %0, ptr %7, align 8, !tbaa !76
  store ptr %1, ptr %8, align 8, !tbaa !76
  store i32 %2, ptr %9, align 4, !tbaa !10
  store ptr %3, ptr %10, align 8, !tbaa !76
  store i32 %4, ptr %11, align 4, !tbaa !10
  store i32 %5, ptr %12, align 4, !tbaa !10
  call void @llvm.lifetime.start.p0(i64 4, ptr %13) #14
  %14 = load i32, ptr %9, align 4, !tbaa !10
  %15 = icmp ne i32 %14, 0
  br i1 %15, label %16, label %73

16:                                               ; preds = %6
  %17 = load i32, ptr %11, align 4, !tbaa !10
  %18 = icmp ne i32 %17, 0
  br i1 %18, label %19, label %46

19:                                               ; preds = %16
  store i32 0, ptr %13, align 4, !tbaa !10
  br label %20

20:                                               ; preds = %42, %19
  %21 = load i32, ptr %13, align 4, !tbaa !10
  %22 = load i32, ptr %12, align 4, !tbaa !10
  %23 = icmp slt i32 %21, %22
  br i1 %23, label %24, label %45

24:                                               ; preds = %20
  %25 = load ptr, ptr %8, align 8, !tbaa !76
  %26 = load i32, ptr %13, align 4, !tbaa !10
  %27 = sext i32 %26 to i64
  %28 = getelementptr inbounds i64, ptr %25, i64 %27
  %29 = load i64, ptr %28, align 8, !tbaa !65
  %30 = xor i64 %29, -1
  %31 = load ptr, ptr %10, align 8, !tbaa !76
  %32 = load i32, ptr %13, align 4, !tbaa !10
  %33 = sext i32 %32 to i64
  %34 = getelementptr inbounds i64, ptr %31, i64 %33
  %35 = load i64, ptr %34, align 8, !tbaa !65
  %36 = xor i64 %35, -1
  %37 = and i64 %30, %36
  %38 = load ptr, ptr %7, align 8, !tbaa !76
  %39 = load i32, ptr %13, align 4, !tbaa !10
  %40 = sext i32 %39 to i64
  %41 = getelementptr inbounds i64, ptr %38, i64 %40
  store i64 %37, ptr %41, align 8, !tbaa !65
  br label %42

42:                                               ; preds = %24
  %43 = load i32, ptr %13, align 4, !tbaa !10
  %44 = add nsw i32 %43, 1
  store i32 %44, ptr %13, align 4, !tbaa !10
  br label %20, !llvm.loop !106

45:                                               ; preds = %20
  br label %72

46:                                               ; preds = %16
  store i32 0, ptr %13, align 4, !tbaa !10
  br label %47

47:                                               ; preds = %68, %46
  %48 = load i32, ptr %13, align 4, !tbaa !10
  %49 = load i32, ptr %12, align 4, !tbaa !10
  %50 = icmp slt i32 %48, %49
  br i1 %50, label %51, label %71

51:                                               ; preds = %47
  %52 = load ptr, ptr %8, align 8, !tbaa !76
  %53 = load i32, ptr %13, align 4, !tbaa !10
  %54 = sext i32 %53 to i64
  %55 = getelementptr inbounds i64, ptr %52, i64 %54
  %56 = load i64, ptr %55, align 8, !tbaa !65
  %57 = xor i64 %56, -1
  %58 = load ptr, ptr %10, align 8, !tbaa !76
  %59 = load i32, ptr %13, align 4, !tbaa !10
  %60 = sext i32 %59 to i64
  %61 = getelementptr inbounds i64, ptr %58, i64 %60
  %62 = load i64, ptr %61, align 8, !tbaa !65
  %63 = and i64 %57, %62
  %64 = load ptr, ptr %7, align 8, !tbaa !76
  %65 = load i32, ptr %13, align 4, !tbaa !10
  %66 = sext i32 %65 to i64
  %67 = getelementptr inbounds i64, ptr %64, i64 %66
  store i64 %63, ptr %67, align 8, !tbaa !65
  br label %68

68:                                               ; preds = %51
  %69 = load i32, ptr %13, align 4, !tbaa !10
  %70 = add nsw i32 %69, 1
  store i32 %70, ptr %13, align 4, !tbaa !10
  br label %47, !llvm.loop !107

71:                                               ; preds = %47
  br label %72

72:                                               ; preds = %71, %45
  br label %128

73:                                               ; preds = %6
  %74 = load i32, ptr %11, align 4, !tbaa !10
  %75 = icmp ne i32 %74, 0
  br i1 %75, label %76, label %102

76:                                               ; preds = %73
  store i32 0, ptr %13, align 4, !tbaa !10
  br label %77

77:                                               ; preds = %98, %76
  %78 = load i32, ptr %13, align 4, !tbaa !10
  %79 = load i32, ptr %12, align 4, !tbaa !10
  %80 = icmp slt i32 %78, %79
  br i1 %80, label %81, label %101

81:                                               ; preds = %77
  %82 = load ptr, ptr %8, align 8, !tbaa !76
  %83 = load i32, ptr %13, align 4, !tbaa !10
  %84 = sext i32 %83 to i64
  %85 = getelementptr inbounds i64, ptr %82, i64 %84
  %86 = load i64, ptr %85, align 8, !tbaa !65
  %87 = load ptr, ptr %10, align 8, !tbaa !76
  %88 = load i32, ptr %13, align 4, !tbaa !10
  %89 = sext i32 %88 to i64
  %90 = getelementptr inbounds i64, ptr %87, i64 %89
  %91 = load i64, ptr %90, align 8, !tbaa !65
  %92 = xor i64 %91, -1
  %93 = and i64 %86, %92
  %94 = load ptr, ptr %7, align 8, !tbaa !76
  %95 = load i32, ptr %13, align 4, !tbaa !10
  %96 = sext i32 %95 to i64
  %97 = getelementptr inbounds i64, ptr %94, i64 %96
  store i64 %93, ptr %97, align 8, !tbaa !65
  br label %98

98:                                               ; preds = %81
  %99 = load i32, ptr %13, align 4, !tbaa !10
  %100 = add nsw i32 %99, 1
  store i32 %100, ptr %13, align 4, !tbaa !10
  br label %77, !llvm.loop !108

101:                                              ; preds = %77
  br label %127

102:                                              ; preds = %73
  store i32 0, ptr %13, align 4, !tbaa !10
  br label %103

103:                                              ; preds = %123, %102
  %104 = load i32, ptr %13, align 4, !tbaa !10
  %105 = load i32, ptr %12, align 4, !tbaa !10
  %106 = icmp slt i32 %104, %105
  br i1 %106, label %107, label %126

107:                                              ; preds = %103
  %108 = load ptr, ptr %8, align 8, !tbaa !76
  %109 = load i32, ptr %13, align 4, !tbaa !10
  %110 = sext i32 %109 to i64
  %111 = getelementptr inbounds i64, ptr %108, i64 %110
  %112 = load i64, ptr %111, align 8, !tbaa !65
  %113 = load ptr, ptr %10, align 8, !tbaa !76
  %114 = load i32, ptr %13, align 4, !tbaa !10
  %115 = sext i32 %114 to i64
  %116 = getelementptr inbounds i64, ptr %113, i64 %115
  %117 = load i64, ptr %116, align 8, !tbaa !65
  %118 = and i64 %112, %117
  %119 = load ptr, ptr %7, align 8, !tbaa !76
  %120 = load i32, ptr %13, align 4, !tbaa !10
  %121 = sext i32 %120 to i64
  %122 = getelementptr inbounds i64, ptr %119, i64 %121
  store i64 %118, ptr %122, align 8, !tbaa !65
  br label %123

123:                                              ; preds = %107
  %124 = load i32, ptr %13, align 4, !tbaa !10
  %125 = add nsw i32 %124, 1
  store i32 %125, ptr %13, align 4, !tbaa !10
  br label %103, !llvm.loop !109

126:                                              ; preds = %103
  br label %127

127:                                              ; preds = %126, %101
  br label %128

128:                                              ; preds = %127, %72
  call void @llvm.lifetime.end.p0(i64 4, ptr %13) #14
  ret void
}

; Function Attrs: inlinehint nounwind uwtable
define internal ptr @Vec_PtrEntry(ptr noundef %0, i32 noundef %1) #2 {
  %3 = alloca ptr, align 8
  %4 = alloca i32, align 4
  store ptr %0, ptr %3, align 8, !tbaa !80
  store i32 %1, ptr %4, align 4, !tbaa !10
  %5 = load ptr, ptr %3, align 8, !tbaa !80
  %6 = getelementptr inbounds nuw %struct.Vec_Ptr_t_, ptr %5, i32 0, i32 2
  %7 = load ptr, ptr %6, align 8, !tbaa !84
  %8 = load i32, ptr %4, align 4, !tbaa !10
  %9 = sext i32 %8 to i64
  %10 = getelementptr inbounds ptr, ptr %7, i64 %9
  %11 = load ptr, ptr %10, align 8, !tbaa !99
  ret ptr %11
}

; Function Attrs: inlinehint nounwind uwtable
define internal i32 @Abc_Lit2Var(i32 noundef %0) #2 {
  %2 = alloca i32, align 4
  store i32 %0, ptr %2, align 4, !tbaa !10
  %3 = load i32, ptr %2, align 4, !tbaa !10
  %4 = ashr i32 %3, 1
  ret i32 %4
}

; Function Attrs: inlinehint nounwind uwtable
define internal i32 @Abc_LitIsCompl(i32 noundef %0) #2 {
  %2 = alloca i32, align 4
  store i32 %0, ptr %2, align 4, !tbaa !10
  %3 = load i32, ptr %2, align 4, !tbaa !10
  %4 = and i32 %3, 1
  ret i32 %4
}

; Function Attrs: nounwind uwtable
define void @Gia_ManDeriveDivPair(i32 noundef %0, ptr noundef %1, i32 noundef %2, ptr noundef %3) #0 {
  %5 = alloca i32, align 4
  %6 = alloca ptr, align 8
  %7 = alloca i32, align 4
  %8 = alloca ptr, align 8
  %9 = alloca i32, align 4
  %10 = alloca i32, align 4
  %11 = alloca i32, align 4
  %12 = alloca ptr, align 8
  %13 = alloca ptr, align 8
  store i32 %0, ptr %5, align 4, !tbaa !10
  store ptr %1, ptr %6, align 8, !tbaa !80
  store i32 %2, ptr %7, align 4, !tbaa !10
  store ptr %3, ptr %8, align 8, !tbaa !76
  call void @llvm.lifetime.start.p0(i64 4, ptr %9) #14
  %14 = load i32, ptr %5, align 4, !tbaa !10
  %15 = call i32 @Abc_LitIsCompl(i32 noundef %14)
  store i32 %15, ptr %9, align 4, !tbaa !10
  call void @llvm.lifetime.start.p0(i64 4, ptr %10) #14
  %16 = load i32, ptr %5, align 4, !tbaa !10
  %17 = call i32 @Abc_Lit2Var(i32 noundef %16)
  %18 = and i32 %17, 32767
  store i32 %18, ptr %10, align 4, !tbaa !10
  call void @llvm.lifetime.start.p0(i64 4, ptr %11) #14
  %19 = load i32, ptr %5, align 4, !tbaa !10
  %20 = call i32 @Abc_Lit2Var(i32 noundef %19)
  %21 = ashr i32 %20, 15
  store i32 %21, ptr %11, align 4, !tbaa !10
  call void @llvm.lifetime.start.p0(i64 8, ptr %12) #14
  %22 = load ptr, ptr %6, align 8, !tbaa !80
  %23 = load i32, ptr %10, align 4, !tbaa !10
  %24 = call i32 @Abc_Lit2Var(i32 noundef %23)
  %25 = call ptr @Vec_PtrEntry(ptr noundef %22, i32 noundef %24)
  store ptr %25, ptr %12, align 8, !tbaa !76
  call void @llvm.lifetime.start.p0(i64 8, ptr %13) #14
  %26 = load ptr, ptr %6, align 8, !tbaa !80
  %27 = load i32, ptr %11, align 4, !tbaa !10
  %28 = call i32 @Abc_Lit2Var(i32 noundef %27)
  %29 = call ptr @Vec_PtrEntry(ptr noundef %26, i32 noundef %28)
  store ptr %29, ptr %13, align 8, !tbaa !76
  %30 = load i32, ptr %10, align 4, !tbaa !10
  %31 = load i32, ptr %11, align 4, !tbaa !10
  %32 = icmp slt i32 %30, %31
  br i1 %32, label %33, label %42

33:                                               ; preds = %4
  %34 = load ptr, ptr %8, align 8, !tbaa !76
  %35 = load ptr, ptr %12, align 8, !tbaa !76
  %36 = load i32, ptr %10, align 4, !tbaa !10
  %37 = call i32 @Abc_LitIsCompl(i32 noundef %36)
  %38 = load ptr, ptr %13, align 8, !tbaa !76
  %39 = load i32, ptr %11, align 4, !tbaa !10
  %40 = call i32 @Abc_LitIsCompl(i32 noundef %39)
  %41 = load i32, ptr %7, align 4, !tbaa !10
  call void @Abc_TtAndCompl(ptr noundef %34, ptr noundef %35, i32 noundef %37, ptr noundef %38, i32 noundef %40, i32 noundef %41)
  br label %47

42:                                               ; preds = %4
  %43 = load ptr, ptr %8, align 8, !tbaa !76
  %44 = load ptr, ptr %12, align 8, !tbaa !76
  %45 = load ptr, ptr %13, align 8, !tbaa !76
  %46 = load i32, ptr %7, align 4, !tbaa !10
  call void @Abc_TtXor(ptr noundef %43, ptr noundef %44, ptr noundef %45, i32 noundef %46, i32 noundef 0)
  br label %47

47:                                               ; preds = %42, %33
  call void @llvm.lifetime.end.p0(i64 8, ptr %13) #14
  call void @llvm.lifetime.end.p0(i64 8, ptr %12) #14
  call void @llvm.lifetime.end.p0(i64 4, ptr %11) #14
  call void @llvm.lifetime.end.p0(i64 4, ptr %10) #14
  call void @llvm.lifetime.end.p0(i64 4, ptr %9) #14
  ret void
}