; Function Attrs: nofree norecurse nosync nounwind memory(read, argmem: readwrite, inaccessiblemem: none) uwtable
define void @Gia_ManDeriveDivPair(i32 noundef %0, ptr noundef readonly captures(none) %1, i32 noundef %2, ptr noundef writeonly captures(none) %3) local_unnamed_addr #11 {
  %5 = lshr i32 %0, 1
  %6 = and i32 %5, 32767
  %7 = ashr i32 %0, 16
  %8 = lshr i32 %6, 1
  %9 = getelementptr i8, ptr %1, i64 8
  %.val19 = load ptr, ptr %9, align 8, !tbaa !76
  %10 = zext nneg i32 %8 to i64
  %11 = getelementptr inbounds nuw ptr, ptr %.val19, i64 %10
  %12 = load ptr, ptr %11, align 8, !tbaa !93
  %13 = ashr i32 %0, 17
  %14 = sext i32 %13 to i64
  %15 = getelementptr inbounds ptr, ptr %.val19, i64 %14
  %16 = load ptr, ptr %15, align 8, !tbaa !93
  %17 = icmp slt i32 %6, %7
  br i1 %17, label %18, label %50

18:                                               ; preds = %4
  %19 = and i32 %0, 2
  %.not.i = icmp eq i32 %19, 0
  %20 = and i32 %0, 65536
  %.not38.i = icmp eq i32 %20, 0
  %21 = icmp sgt i32 %2, 0
  br i1 %.not.i, label %36, label %22

22:                                               ; preds = %18
  br i1 %.not38.i, label %.preheader42.i, label %.preheader44.i

.preheader44.i:                                   ; preds = %22
  br i1 %21, label %.lr.ph.preheader.i, label %Abc_TtAndCompl.exit

.lr.ph.preheader.i:                               ; preds = %.preheader44.i
  %wide.trip.count.i = zext nneg i32 %2 to i64
  br label %.lr.ph.i

.preheader42.i:                                   ; preds = %22
  br i1 %21, label %.lr.ph48.preheader.i, label %Abc_TtAndCompl.exit

.lr.ph48.preheader.i:                             ; preds = %.preheader42.i
  %wide.trip.count60.i = zext nneg i32 %2 to i64
  br label %.lr.ph48.i

.lr.ph.i:                                         ; preds = %.lr.ph.i, %.lr.ph.preheader.i
  %indvars.iv.i = phi i64 [ 0, %.lr.ph.preheader.i ], [ %indvars.iv.next.i, %.lr.ph.i ]
  %23 = getelementptr inbounds nuw i64, ptr %12, i64 %indvars.iv.i
  %24 = load i64, ptr %23, align 8, !tbaa !94
  %25 = getelementptr inbounds nuw i64, ptr %16, i64 %indvars.iv.i
  %26 = load i64, ptr %25, align 8, !tbaa !94
  %.demorgan.i = or i64 %26, %24
  %27 = xor i64 %.demorgan.i, -1
  %28 = getelementptr inbounds nuw i64, ptr %3, i64 %indvars.iv.i
  store i64 %27, ptr %28, align 8, !tbaa !94
  %indvars.iv.next.i = add nuw nsw i64 %indvars.iv.i, 1
  %exitcond.not.i = icmp eq i64 %indvars.iv.next.i, %wide.trip.count.i
  br i1 %exitcond.not.i, label %Abc_TtAndCompl.exit, label %.lr.ph.i, !llvm.loop !98

.lr.ph48.i:                                       ; preds = %.lr.ph48.i, %.lr.ph48.preheader.i
  %indvars.iv57.i = phi i64 [ 0, %.lr.ph48.preheader.i ], [ %indvars.iv.next58.i, %.lr.ph48.i ]
  %29 = getelementptr inbounds nuw i64, ptr %12, i64 %indvars.iv57.i
  %30 = load i64, ptr %29, align 8, !tbaa !94
  %31 = xor i64 %30, -1
  %32 = getelementptr inbounds nuw i64, ptr %16, i64 %indvars.iv57.i
  %33 = load i64, ptr %32, align 8, !tbaa !94
  %34 = and i64 %33, %31
  %35 = getelementptr inbounds nuw i64, ptr %3, i64 %indvars.iv57.i
  store i64 %34, ptr %35, align 8, !tbaa !94
  %indvars.iv.next58.i = add nuw nsw i64 %indvars.iv57.i, 1
  %exitcond61.not.i = icmp eq i64 %indvars.iv.next58.i, %wide.trip.count60.i
  br i1 %exitcond61.not.i, label %Abc_TtAndCompl.exit, label %.lr.ph48.i, !llvm.loop !99

36:                                               ; preds = %18
  br i1 %.not38.i, label %.preheader.i, label %.preheader40.i

.preheader40.i:                                   ; preds = %36
  br i1 %21, label %.lr.ph50.preheader.i, label %Abc_TtAndCompl.exit

.lr.ph50.preheader.i:                             ; preds = %.preheader40.i
  %wide.trip.count65.i = zext nneg i32 %2 to i64
  br label %.lr.ph50.i

.preheader.i:                                     ; preds = %36
  br i1 %21, label %.lr.ph52.preheader.i, label %Abc_TtAndCompl.exit

.lr.ph52.preheader.i:                             ; preds = %.preheader.i
  %wide.trip.count70.i = zext nneg i32 %2 to i64
  br label %.lr.ph52.i

.lr.ph50.i:                                       ; preds = %.lr.ph50.i, %.lr.ph50.preheader.i
  %indvars.iv62.i = phi i64 [ 0, %.lr.ph50.preheader.i ], [ %indvars.iv.next63.i, %.lr.ph50.i ]
  %37 = getelementptr inbounds nuw i64, ptr %12, i64 %indvars.iv62.i
  %38 = load i64, ptr %37, align 8, !tbaa !94
  %39 = getelementptr inbounds nuw i64, ptr %16, i64 %indvars.iv62.i
  %40 = load i64, ptr %39, align 8, !tbaa !94
  %41 = xor i64 %40, -1
  %42 = and i64 %38, %41
  %43 = getelementptr inbounds nuw i64, ptr %3, i64 %indvars.iv62.i
  store i64 %42, ptr %43, align 8, !tbaa !94
  %indvars.iv.next63.i = add nuw nsw i64 %indvars.iv62.i, 1
  %exitcond66.not.i = icmp eq i64 %indvars.iv.next63.i, %wide.trip.count65.i
  br i1 %exitcond66.not.i, label %Abc_TtAndCompl.exit, label %.lr.ph50.i, !llvm.loop !100

.lr.ph52.i:                                       ; preds = %.lr.ph52.i, %.lr.ph52.preheader.i
  %indvars.iv67.i = phi i64 [ 0, %.lr.ph52.preheader.i ], [ %indvars.iv.next68.i, %.lr.ph52.i ]
  %44 = getelementptr inbounds nuw i64, ptr %12, i64 %indvars.iv67.i
  %45 = load i64, ptr %44, align 8, !tbaa !94
  %46 = getelementptr inbounds nuw i64, ptr %16, i64 %indvars.iv67.i
  %47 = load i64, ptr %46, align 8, !tbaa !94
  %48 = and i64 %47, %45
  %49 = getelementptr inbounds nuw i64, ptr %3, i64 %indvars.iv67.i
  store i64 %48, ptr %49, align 8, !tbaa !94
  %indvars.iv.next68.i = add nuw nsw i64 %indvars.iv67.i, 1
  %exitcond71.not.i = icmp eq i64 %indvars.iv.next68.i, %wide.trip.count70.i
  br i1 %exitcond71.not.i, label %Abc_TtAndCompl.exit, label %.lr.ph52.i, !llvm.loop !101

50:                                               ; preds = %4
  %51 = icmp sgt i32 %2, 0
  br i1 %51, label %.lr.ph.preheader.i20, label %Abc_TtAndCompl.exit

.lr.ph.preheader.i20:                             ; preds = %50
  %wide.trip.count.i21 = zext nneg i32 %2 to i64
  br label %.lr.ph.i22

.lr.ph.i22:                                       ; preds = %.lr.ph.i22, %.lr.ph.preheader.i20
  %indvars.iv.i23 = phi i64 [ 0, %.lr.ph.preheader.i20 ], [ %indvars.iv.next.i24, %.lr.ph.i22 ]
  %52 = getelementptr inbounds nuw i64, ptr %12, i64 %indvars.iv.i23
  %53 = load i64, ptr %52, align 8, !tbaa !94
  %54 = getelementptr inbounds nuw i64, ptr %16, i64 %indvars.iv.i23
  %55 = load i64, ptr %54, align 8, !tbaa !94
  %56 = xor i64 %55, %53
  %57 = getelementptr inbounds nuw i64, ptr %3, i64 %indvars.iv.i23
  store i64 %56, ptr %57, align 8, !tbaa !94
  %indvars.iv.next.i24 = add nuw nsw i64 %indvars.iv.i23, 1
  %exitcond.not.i25 = icmp eq i64 %indvars.iv.next.i24, %wide.trip.count.i21
  br i1 %exitcond.not.i25, label %Abc_TtAndCompl.exit, label %.lr.ph.i22, !llvm.loop !102

Abc_TtAndCompl.exit:                              ; preds = %.lr.ph.i22, %.lr.ph.i, %.lr.ph48.i, %.lr.ph50.i, %.lr.ph52.i, %50, %.preheader.i, %.preheader40.i, %.preheader42.i, %.preheader44.i
  ret void
}